Certificate:
    Data:
        Version: 3 (0x2)
        Serial Number: 286 (0x11e)
    Signature Algorithm: sha256WithRSAEncryption
        Issuer: C=CN, ST=Beijing, L=Beijing, O=teclick.com, OU=teclick, CN=Nelson/emailAddress=lipeng36@sina.com
        Validity
            Not Before: Jan  6 14:19:21 2020 GMT
            Not After : Jan  5 14:19:21 2021 GMT
        Subject: C=CN, ST=Beijing, O=teclick.com, OU=teclick, CN=Nelson/emailAddress=lipeng36@sina.com
        Subject Public Key Info:
            Public Key Algorithm: rsaEncryption
                Public-Key: (1024 bit)
                Modulus:
                    00:cf:61:3b:32:6b:1b:a4:da:de:09:30:eb:03:a0:
                    37:24:71:bc:b6:65:93:74:d5:91:4f:aa:40:f2:05:
                    88:82:76:04:da:0d:da:34:84:79:a8:65:3a:c6:42:
                    14:10:5f:25:b4:cd:79:e6:fc:1a:5e:f7:70:5c:12:
                    c1:e6:7e:02:a5:16:12:dc:b0:db:52:e4:c5:95:33:
                    22:87:30:56:21:27:aa:eb:db:0f:ac:34:31:2a:19:
                    bf:0f:df:5f:53:39:f8:c2:ee:5e:0b:fc:58:ab:41:
                    b5:9b:96:5c:71:44:17:8b:0a:53:3c:22:75:6c:ba:
                    36:c2:47:db:1b:57:d2:4d:77
                Exponent: 65537 (0x10001)
        X509v3 extensions:
            X509v3 Basic Constraints: 
                CA:FALSE
            Netscape Comment: 
                OpenSSL Generated Certificate
            X509v3 Subject Key Identifier: 
                B3:95:23:C9:2A:9E:59:D9:FE:A6:43:25:EB:61:EA:A1:C7:A0:83:19
            X509v3 Authority Key Identifier: 
                keyid:21:31:5F:1C:C1:93:5D:16:CD:91:44:9D:BD:4E:F0:37:FD:1F:AC:40

    Signature Algorithm: sha256WithRSAEncryption
         c2:24:56:91:11:70:ad:53:8e:d0:b2:8d:7e:f3:68:a3:02:2f:
         77:05:c3:1d:8c:f9:6c:df:11:a3:8f:78:b4:88:20:05:75:52:
         40:65:29:0e:bc:e9:02:41:af:92:f1:45:95:91:7b:27:f4:46:
         9b:e5:26:74:02:ba:31:4f:66:43:92:ad:7d:57:8f:03:6c:c4:
         ce:af:23:2e:59:65:a8:8a:63:ad:7a:2c:b0:09:c8:a4:0b:18:
         0f:6c:f6:57:34:75:cb:6e:01:00:d2:a7:ac:b1:14:2f:29:76:
         3c:89:7c:16:d5:db:cd:11:01:53:40:a8:e7:f0:9b:a3:fb:49:
         5e:39:ee:6d:a9:0c:7e:56:3f:f9:a5:b1:79:f1:48:85:0d:94:
         d4:40:c2:c3:8d:28:72:de:4c:82:ab:ba:f7:33:14:ff:e4:26:
         0e:c9:6a:9c:40:23:4b:6a:46:5f:bb:e5:bf:c9:0f:ab:58:7d:
         06:41:69:25:e9:94:68:46:c7:ab:a0:04:ca:3d:c0:88:8a:a4:
         83:b7:da:b7:c4:8e:3e:68:65:67:1a:a3:29:4d:94:dd:4b:cd:
         60:36:03:2b:2f:f8:fb:c6:40:e8:47:98:ce:66:bb:92:24:37:
         30:0d:81:62:dc:eb:db:f0:9f:a6:97:67:83:8c:9f:a3:9d:b6:
         1d:2a:95:bc
-----BEGIN CERTIFICATE-----
MIIDejCCAmKgAwIBAgICAR4wDQYJKoZIhvcNAQELBQAwgYwxCzAJBgNVBAYTAkNO
MRAwDgYDVQQIDAdCZWlqaW5nMRAwDgYDVQQHDAdCZWlqaW5nMRQwEgYDVQQKDAt0
ZWNsaWNrLmNvbTEQMA4GA1UECwwHdGVjbGljazEPMA0GA1UEAwwGTmVsc29uMSAw
HgYJKoZIhvcNAQkBFhFsaXBlbmczNkBzaW5hLmNvbTAeFw0yMDAxMDYxNDE5MjFa
Fw0yMTAxMDUxNDE5MjFaMHoxCzAJBgNVBAYTAkNOMRAwDgYDVQQIDAdCZWlqaW5n
MRQwEgYDVQQKDAt0ZWNsaWNrLmNvbTEQMA4GA1UECwwHdGVjbGljazEPMA0GA1UE
AwwGTmVsc29uMSAwHgYJKoZIhvcNAQkBFhFsaXBlbmczNkBzaW5hLmNvbTCBnzAN
BgkqhkiG9w0BAQEFAAOBjQAwgYkCgYEAz2E7MmsbpNreCTDrA6A3JHG8tmWTdNWR
T6pA8gWIgnYE2g3aNIR5qGU6xkIUEF8ltM155vwaXvdwXBLB5n4CpRYS3LDbUuTF
lTMihzBWISeq69sPrDQxKhm/D99fUzn4wu5eC/xYq0G1m5ZccUQXiwpTPCJ1bLo2
wkfbG1fSTXcCAwEAAaN7MHkwCQYDVR0TBAIwADAsBglghkgBhvhCAQ0EHxYdT3Bl
blNTTCBHZW5lcmF0ZWQgQ2VydGlmaWNhdGUwHQYDVR0OBBYEFLOVI8kqnlnZ/qZD
Jeth6qHHoIMZMB8GA1UdIwQYMBaAFCExXxzBk10WzZFEnb1O8Df9H6xAMA0GCSqG
SIb3DQEBCwUAA4IBAQDCJFaREXCtU47Qso1+82ijAi93BcMdjPls3xGjj3i0iCAF
dVJAZSkOvOkCQa+S8UWVkXsn9Eab5SZ0AroxT2ZDkq19V48DbMTOryMuWWWoimOt
eiywCcikCxgPbPZXNHXLbgEA0qessRQvKXY8iXwW1dvNEQFTQKjn8Juj+0leOe5t
qQx+Vj/5pbF58UiFDZTUQMLDjShy3kyCq7r3MxT/5CYOyWqcQCNLakZfu+W/yQ+r
WH0GQWkl6ZRoRseroATKPcCIiqSDt9q3xI4+aGVnGqMpTZTdS81gNgMrL/j7xkDo
R5jOZruSJDcwDYFi3Ovb8J+ml2eDjJ+jnbYdKpW8
-----END CERTIFICATE-----
